target datalayout = "e-m:e-p270:32:32-p271:32:32-p272:64:64-i64:64-i128:128-f80:128-n8:16:32:64-S128"
target triple = "x86_64-pc-linux-gnu"

%"class.icu_77::Locale" = type <{ %"class.icu_77::UObject", [12 x i8], [6 x i8], [4 x i8], [2 x i8], i32, [4 x i8], ptr, [157 x i8], [3 x i8], ptr, i8, [7 x i8] }>
%"class.icu_77::UObject" = type { ptr }

; Function Attrs: mustprogress uwtable
define void @ulocbld_setLocale_77(ptr noundef %0, ptr noundef %1, i32 noundef %2) #1 personality ptr @__gxx_personality_v0 {
  %4 = alloca ptr, align 8
  %5 = alloca ptr, align 8
  %6 = alloca i32, align 4
  %7 = alloca %"class.icu_77::Locale", align 8
  %8 = alloca %"class.icu_77::Locale", align 8
  %9 = alloca ptr, align 8
  %10 = alloca i32, align 4
  %11 = alloca [157 x i8], align 16
  %12 = alloca %"class.icu_77::Locale", align 8
  store ptr %0, ptr %4, align 8, !tbaa !23
  store ptr %1, ptr %5, align 8, !tbaa !17
  store i32 %2, ptr %6, align 4, !tbaa !14
  %13 = load ptr, ptr %4, align 8, !tbaa !23
  %14 = icmp eq ptr %13, null
  br i1 %14, label %15, label %16

15:                                               ; preds = %3
  br label %67

16:                                               ; preds = %3
  call void @llvm.lifetime.start.p0(i64 224, ptr %7) #11
  call void @_ZN6icu_776LocaleC1Ev(ptr noundef nonnull align 8 dereferenceable(217) %7)
  %17 = load i32, ptr %6, align 4, !tbaa !14
  %18 = icmp slt i32 %17, 0
  br i1 %18, label %27, label %19

19:                                               ; preds = %16
  %20 = load ptr, ptr %5, align 8, !tbaa !17
  %21 = load i32, ptr %6, align 4, !tbaa !14
  %22 = sext i32 %21 to i64
  %23 = getelementptr inbounds i8, ptr %20, i64 %22
  %24 = load i8, ptr %23, align 1, !tbaa !27
  %25 = sext i8 %24 to i32
  %26 = icmp eq i32 %25, 0
  br i1 %26, label %27, label %35

27:                                               ; preds = %19, %16
  call void @llvm.lifetime.start.p0(i64 224, ptr %8) #11
  %28 = load ptr, ptr %5, align 8, !tbaa !17
  invoke void @_ZN6icu_776LocaleC1EPKcS2_S2_S2_(ptr noundef nonnull align 8 dereferenceable(217) %8, ptr noundef %28, ptr noundef null, ptr noundef null, ptr noundef null)
          to label %29 unwind label %31

29:                                               ; preds = %27
  %30 = call noundef nonnull align 8 dereferenceable(217) ptr @_ZN6icu_776LocaleaSEOS0_(ptr noundef nonnull align 8 dereferenceable(217) %7, ptr noundef nonnull align 8 dereferenceable(217) %8) #11
  call void @_ZN6icu_776LocaleD1Ev(ptr noundef nonnull align 8 dereferenceable(217) %8) #11
  call void @llvm.lifetime.end.p0(i64 224, ptr %8) #11
  br label %63

31:                                               ; preds = %27
  %32 = landingpad { ptr, i32 }
          cleanup
  %33 = extractvalue { ptr, i32 } %32, 0
  store ptr %33, ptr %9, align 8
  %34 = extractvalue { ptr, i32 } %32, 1
  store i32 %34, ptr %10, align 4
  call void @llvm.lifetime.end.p0(i64 224, ptr %8) #11
  br label %68

35:                                               ; preds = %19
  %36 = load i32, ptr %6, align 4, !tbaa !14
  %37 = icmp sge i32 %36, 157
  br i1 %37, label %38, label %44

38:                                               ; preds = %35
  invoke void @_ZN6icu_776Locale10setToBogusEv(ptr noundef nonnull align 8 dereferenceable(217) %7)
          to label %39 unwind label %40

39:                                               ; preds = %38
  br label %62

40:                                               ; preds = %63, %38
  %41 = landingpad { ptr, i32 }
          cleanup
  %42 = extractvalue { ptr, i32 } %41, 0
  store ptr %42, ptr %9, align 8
  %43 = extractvalue { ptr, i32 } %41, 1
  store i32 %43, ptr %10, align 4
  br label %68

44:                                               ; preds = %35
  call void @llvm.lifetime.start.p0(i64 157, ptr %11) #11
  br label %45

45:                                               ; preds = %44
  %46 = getelementptr inbounds [157 x i8], ptr %11, i64 0, i64 0
  %47 = load ptr, ptr %5, align 8, !tbaa !17
  %48 = load i32, ptr %6, align 4, !tbaa !14
  %49 = sext i32 %48 to i64
  call void @llvm.memcpy.p0.p0.i64(ptr align 16 %46, ptr align 1 %47, i64 %49, i1 false)
  br label %50

50:                                               ; preds = %45
  br label %51

51:                                               ; preds = %50
  %52 = load i32, ptr %6, align 4, !tbaa !14
  %53 = sext i32 %52 to i64
  %54 = getelementptr inbounds [157 x i8], ptr %11, i64 0, i64 %53
  store i8 0, ptr %54, align 1, !tbaa !27
  call void @llvm.lifetime.start.p0(i64 224, ptr %12) #11
  %55 = getelementptr inbounds [157 x i8], ptr %11, i64 0, i64 0
  invoke void @_ZN6icu_776LocaleC1EPKcS2_S2_S2_(ptr noundef nonnull align 8 dereferenceable(217) %12, ptr noundef %55, ptr noundef null, ptr noundef null, ptr noundef null)
          to label %56 unwind label %58

56:                                               ; preds = %51
  %57 = call noundef nonnull align 8 dereferenceable(217) ptr @_ZN6icu_776LocaleaSEOS0_(ptr noundef nonnull align 8 dereferenceable(217) %7, ptr noundef nonnull align 8 dereferenceable(217) %12) #11
  call void @_ZN6icu_776LocaleD1Ev(ptr noundef nonnull align 8 dereferenceable(217) %12) #11
  call void @llvm.lifetime.end.p0(i64 224, ptr %12) #11
  call void @llvm.lifetime.end.p0(i64 157, ptr %11) #11
  br label %62

58:                                               ; preds = %51
  %59 = landingpad { ptr, i32 }
          cleanup
  %60 = extractvalue { ptr, i32 } %59, 0
  store ptr %60, ptr %9, align 8
  %61 = extractvalue { ptr, i32 } %59, 1
  store i32 %61, ptr %10, align 4
  call void @llvm.lifetime.end.p0(i64 224, ptr %12) #11
  call void @llvm.lifetime.end.p0(i64 157, ptr %11) #11
  br label %68

62:                                               ; preds = %56, %39
  br label %63

63:                                               ; preds = %62, %29
  %64 = load ptr, ptr %4, align 8, !tbaa !23
  %65 = invoke noundef nonnull align 8 dereferenceable(48) ptr @_ZN6icu_7713LocaleBuilder9setLocaleERKNS_6LocaleE(ptr noundef nonnull align 8 dereferenceable(48) %64, ptr noundef nonnull align 8 dereferenceable(217) %7)
          to label %66 unwind label %40

66:                                               ; preds = %63
  call void @_ZN6icu_776LocaleD1Ev(ptr noundef nonnull align 8 dereferenceable(217) %7) #11
  call void @llvm.lifetime.end.p0(i64 224, ptr %7) #11
  br label %67

67:                                               ; preds = %66, %15
  ret void

68:                                               ; preds = %58, %40, %31
  call void @_ZN6icu_776LocaleD1Ev(ptr noundef nonnull align 8 dereferenceable(217) %7) #11
  call void @llvm.lifetime.end.p0(i64 224, ptr %7) #11
  br label %69

69:                                               ; preds = %68
  %70 = load ptr, ptr %9, align 8
  %71 = load i32, ptr %10, align 4
  %72 = insertvalue { ptr, i32 } poison, ptr %70, 0
  %73 = insertvalue { ptr, i32 } %72, i32 %71, 1
  resume { ptr, i32 } %73
}