; Function Attrs: mustprogress uwtable
define void @ulocbld_setLocale_77(ptr noundef %0, ptr noundef %1, i32 noundef %2) local_unnamed_addr #1 personality ptr @__gxx_personality_v0 {
  %4 = alloca %"class.icu_77::Locale", align 8
  %5 = alloca %"class.icu_77::Locale", align 8
  %6 = alloca [157 x i8], align 16
  %7 = alloca %"class.icu_77::Locale", align 8
  %8 = icmp eq ptr %0, null
  br i1 %8, label %35, label %9

9:                                                ; preds = %3
  call void @llvm.lifetime.start.p0(i64 224, ptr nonnull %4) #13
  call void @_ZN6icu_776LocaleC1Ev(ptr noundef nonnull align 8 dereferenceable(217) %4)
  %10 = icmp slt i32 %2, 0
  br i1 %10, label %16, label %11

11:                                               ; preds = %9
  %12 = zext nneg i32 %2 to i64
  %13 = getelementptr inbounds nuw i8, ptr %1, i64 %12
  %14 = load i8, ptr %13, align 1, !tbaa !17
  %15 = icmp eq i8 %14, 0
  br i1 %15, label %16, label %21

16:                                               ; preds = %11, %9
  call void @llvm.lifetime.start.p0(i64 224, ptr nonnull %5) #13
  invoke void @_ZN6icu_776LocaleC1EPKcS2_S2_S2_(ptr noundef nonnull align 8 dereferenceable(217) %5, ptr noundef %1, ptr noundef null, ptr noundef null, ptr noundef null)
          to label %17 unwind label %19

17:                                               ; preds = %16
  %18 = call noundef nonnull align 8 dereferenceable(217) ptr @_ZN6icu_776LocaleaSEOS0_(ptr noundef nonnull align 8 dereferenceable(217) %4, ptr noundef nonnull align 8 dereferenceable(217) %5) #13
  call void @_ZN6icu_776LocaleD1Ev(ptr noundef nonnull align 8 dereferenceable(217) %5) #13
  call void @llvm.lifetime.end.p0(i64 224, ptr nonnull %5) #13
  br label %32

19:                                               ; preds = %16
  %20 = landingpad { ptr, i32 }
          cleanup
  call void @llvm.lifetime.end.p0(i64 224, ptr nonnull %5) #13
  br label %36

21:                                               ; preds = %11
  %22 = icmp samesign ugt i32 %2, 156
  br i1 %22, label %23, label %26

23:                                               ; preds = %21
  invoke void @_ZN6icu_776Locale10setToBogusEv(ptr noundef nonnull align 8 dereferenceable(217) %4)
          to label %32 unwind label %24

24:                                               ; preds = %32, %23
  %25 = landingpad { ptr, i32 }
          cleanup
  br label %36

26:                                               ; preds = %21
  call void @llvm.lifetime.start.p0(i64 157, ptr nonnull %6) #13
  call void @llvm.memcpy.p0.p0.i64(ptr nonnull align 16 %6, ptr nonnull align 1 %1, i64 %12, i1 false)
  %27 = getelementptr inbounds nuw [157 x i8], ptr %6, i64 0, i64 %12
  store i8 0, ptr %27, align 1, !tbaa !17
  call void @llvm.lifetime.start.p0(i64 224, ptr nonnull %7) #13
  invoke void @_ZN6icu_776LocaleC1EPKcS2_S2_S2_(ptr noundef nonnull align 8 dereferenceable(217) %7, ptr noundef nonnull %6, ptr noundef null, ptr noundef null, ptr noundef null)
          to label %28 unwind label %30

28:                                               ; preds = %26
  %29 = call noundef nonnull align 8 dereferenceable(217) ptr @_ZN6icu_776LocaleaSEOS0_(ptr noundef nonnull align 8 dereferenceable(217) %4, ptr noundef nonnull align 8 dereferenceable(217) %7) #13
  call void @_ZN6icu_776LocaleD1Ev(ptr noundef nonnull align 8 dereferenceable(217) %7) #13
  call void @llvm.lifetime.end.p0(i64 224, ptr nonnull %7) #13
  call void @llvm.lifetime.end.p0(i64 157, ptr nonnull %6) #13
  br label %32

30:                                               ; preds = %26
  %31 = landingpad { ptr, i32 }
          cleanup
  call void @llvm.lifetime.end.p0(i64 224, ptr nonnull %7) #13
  call void @llvm.lifetime.end.p0(i64 157, ptr nonnull %6) #13
  br label %36

32:                                               ; preds = %28, %23, %17
  %33 = invoke noundef nonnull align 8 dereferenceable(48) ptr @_ZN6icu_7713LocaleBuilder9setLocaleERKNS_6LocaleE(ptr noundef nonnull align 8 dereferenceable(48) %0, ptr noundef nonnull align 8 dereferenceable(217) %4)
          to label %34 unwind label %24

34:                                               ; preds = %32
  call void @_ZN6icu_776LocaleD1Ev(ptr noundef nonnull align 8 dereferenceable(217) %4) #13
  call void @llvm.lifetime.end.p0(i64 224, ptr nonnull %4) #13
  br label %35

35:                                               ; preds = %3, %34
  ret void

36:                                               ; preds = %30, %24, %19
  %.pn = phi { ptr, i32 } [ %25, %24 ], [ %20, %19 ], [ %31, %30 ]
  call void @_ZN6icu_776LocaleD1Ev(ptr noundef nonnull align 8 dereferenceable(217) %4) #13
  call void @llvm.lifetime.end.p0(i64 224, ptr nonnull %4) #13
  resume { ptr, i32 } %.pn
}